(lp0
(lp1
((I0
I2
tp2
S'>'
p3
tp4
a((I1
I2
tp5
g3
tp6
a((I2
I2
tp7
g3
tp8
a((I3
I2
tp9
g3
tp10
a((I4
I2
tp11
S'<'
p12
tp13
a((I3
I2
tp14
g3
tp15
a(g11
g12
tp16
a(g14
g3
tp17
a(g11
S'v'
p18
tp19
a((I4
I1
tp20
g3
tp21
a((I5
I1
tp22
S'^'
p23
tp24
a((I5
I2
tp25
S'%'
p26
tp27
aa(lp28
(g2
g3
tp29
a(g5
g3
tp30
a(g7
g18
tp31
a((I2
I1
tp32
g3
tp33
a((I3
I1
tp34
g23
tp35
a((I3
I2
tp36
g3
tp37
a(g11
g18
tp38
a(g20
g3
tp39
a(g22
g23
tp40
a(g25
g26
tp41
aa(lp42
(g2
g3
tp43
a(g5
g18
tp44
a((I1
I1
tp45
g12
tp46
a((I0
I1
tp47
g3
tp48
a((I1
I1
tp49
g23
tp50
a((I1
I2
tp51
g3
tp52
a(g7
g3
tp53
a(g9
g3
tp54
a(g11
g3
tp55
a((I5
I2
tp56
g26
tp57
aa(lp58
(g2
g23
tp59
a((I0
I3
tp60
g18
tp61
a((I0
I2
tp62
g18
tp63
a((I0
I1
tp64
g23
tp65
a((I0
I2
tp66
g3
tp67
a(g5
g23
tp68
a((I1
I3
tp69
g18
tp70
a((I1
I2
tp71
g3
tp72
a(g7
g3
tp73
a(g9
g23
tp74
a((I3
I3
tp75
g12
tp76
a((I2
I3
tp77
g23
tp78
a((I2
I4
tp79
g18
tp80
a((I2
I3
tp81
g23
tp82
a(g79
g3
tp83
a((I3
I4
tp84
g3
tp85
a((I4
I4
tp86
g3
tp87
a((I5
I4
tp88
g18
tp89
a((I5
I3
tp90
g18
tp91
a((I5
I2
tp92
g26
tp93
aa(lp94
(g2
g23
tp95
a(g60
g23
tp96
a((I0
I4
tp97
g18
tp98
a((I0
I3
tp99
g23
tp100
a(g97
g18
tp101
a(g99
g18
tp102
a(g62
g3
tp103
a(g5
g3
tp104
a(g7
g3
tp105
a(g9
g18
tp106
a((I3
I1
tp107
g3
tp108
a((I4
I1
tp109
g23
tp110
a((I4
I2
tp111
g3
tp112
a(g56
g26
tp113
aa(lp114
(g2
g3
tp115
a(g5
g18
tp116
a(g45
g23
tp117
a(g51
g3
tp118
a(g7
g3
tp119
a(g9
g3
tp120
a(g11
g3
tp121
a(g56
g26
tp122
aa(lp123
(g2
g3
tp124
a(g5
g3
tp125
a(g7
g12
tp126
a((I1
I2
tp127
g3
tp128
a(g7
g12
tp129
a(g127
g23
tp130
a(g69
g12
tp131
a((I0
I3
tp132
g3
tp133
a((I1
I3
tp134
g3
tp135
a((I2
I3
tp136
g18
tp137
a((I2
I2
tp138
g3
tp139
a(g9
g12
tp140
a((I2
I2
tp141
g3
tp142
a(g9
g3
tp143
a(g11
g23
tp144
a((I4
I3
tp145
g18
tp146
a((I4
I2
tp147
g3
tp148
a(g56
g26
tp149
aa(lp150
(g2
g3
tp151
a(g5
g18
tp152
a(g45
g3
tp153
a((I2
I1
tp154
g3
tp155
a(g34
g3
tp156
a(g109
g3
tp157
a(g22
g12
tp158
a((I4
I1
tp159
g3
tp160
a(g22
g23
tp161
a(g25
g26
tp162
aa(lp163
(g2
g3
tp164
a(g5
g12
tp165
a((I0
I2
tp166
g3
tp167
a(g5
g3
tp168
a(g7
g23
tp169
a((I2
I3
tp170
g12
tp171
a((I1
I3
tp172
g3
tp173
a(g136
g18
tp174
a(g138
g3
tp175
a(g9
g3
tp176
a(g11
g23
tp177
a(g145
g3
tp178
a((I5
I3
tp179
g12
tp180
a((I4
I3
tp181
g3
tp182
a(g179
g18
tp183
a(g92
g26
tp184
aa(lp185
(g2
g3
tp186
a(g5
g3
tp187
a(g7
g12
tp188
a(g127
g3
tp189
a(g7
g18
tp190
a(g32
g23
tp191
a((I2
I2
tp192
g3
tp193
a(g9
g3
tp194
a(g11
g3
tp195
a(g56
g26
tp196
aa(lp197
(g2
g3
tp198
a(g5
g3
tp199
a(g7
g18
tp200
a(g32
g23
tp201
a(g192
g3
tp202
a(g9
g18
tp203
a(g107
g23
tp204
a(g36
g12
tp205
a(g141
g3
tp206
a(g9
g3
tp207
a(g11
g23
tp208
a(g145
g23
tp209
a((I4
I4
tp210
g3
tp211
a(g88
g18
tp212
a(g90
g18
tp213
a(g92
g26
tp214
aa(lp215
(g2
g23
tp216
a(g60
g18
tp217
a(g62
g23
tp218
a(g60
g18
tp219
a(g62
g23
tp220
a(g60
g18
tp221
a(g62
g3
tp222
a(g5
g12
tp223
a(g166
g3
tp224
a(g5
g3
tp225
a(g7
g3
tp226
a(g9
g3
tp227
a(g11
g18
tp228
a(g20
g12
tp229
a((I3
I1
tp230
g3
tp231
a(g109
g23
tp232
a(g111
g3
tp233
a(g56
g26
tp234
aa(lp235
(g2
g23
tp236
a(g60
g18
tp237
a(g62
g3
tp238
a(g5
g3
tp239
a(g7
g3
tp240
a(g9
g12
tp241
a(g141
g3
tp242
a(g9
g3
tp243
a(g11
g18
tp244
a(g20
g23
tp245
a(g111
g3
tp246
a(g56
g26
tp247
aa(lp248
(g2
g3
tp249
a(g5
g3
tp250
a(g7
g3
tp251
a(g9
g23
tp252
a(g75
g18
tp253
a((I3
I2
tp254
g3
tp255
a(g11
g23
tp256
a(g145
g18
tp257
a(g147
g18
tp258
a(g20
g3
tp259
a(g22
g23
tp260
a(g25
g26
tp261
aa(lp262
(g2
g3
tp263
a(g5
g3
tp264
a(g7
g3
tp265
a(g9
g23
tp266
a(g75
g12
tp267
a(g77
g18
tp268
a(g138
g12
tp269
a(g127
g18
tp270
a(g45
g18
tp271
a((I1
I0
tp272
g3
tp273
a((I2
I0
tp274
g3
tp275
a((I3
I0
tp276
g23
tp277
a((I3
I1
tp278
g3
tp279
a(g109
g12
tp280
a(g230
g23
tp281
a(g36
g3
tp282
a(g11
g18
tp283
a(g20
g23
tp284
a(g111
g3
tp285
a(g56
g26
tp286
aa(lp287
(g2
g3
tp288
a(g5
g3
tp289
a(g7
g12
tp290
a(g127
g3
tp291
a(g7
g3
tp292
a(g9
g3
tp293
a(g11
g3
tp294
a(g56
g26
tp295
aa(lp296
(g2
g3
tp297
a(g5
g18
tp298
a(g45
g18
tp299
a(g272
g3
tp300
a(g274
g3
tp301
a(g276
g3
tp302
a((I4
I0
tp303
g12
tp304
a((I3
I0
tp305
g12
tp306
a((I2
I0
tp307
g3
tp308
a(g276
g12
tp309
a(g307
g23
tp310
a((I2
I1
tp311
g3
tp312
a(g34
g3
tp313
a(g109
g23
tp314
a(g111
g3
tp315
a(g56
g26
tp316
aa(lp317
(g2
g3
tp318
a(g5
g18
tp319
a(g45
g3
tp320
a(g154
g23
tp321
a(g192
g18
tp322
a(g32
g12
tp323
a((I1
I1
tp324
g12
tp325
a(g47
g23
tp326
a(g66
g3
tp327
a(g5
g23
tp328
a(g69
g3
tp329
a(g136
g18
tp330
a(g138
g3
tp331
a(g9
g3
tp332
a(g11
g3
tp333
a(g56
g26
tp334
aa(lp335
(g2
g3
tp336
a(g5
g3
tp337
a(g7
g3
tp338
a(g9
g3
tp339
a(g11
g3
tp340
a(g56
g26
tp341
aa(lp342
(g2
g3
tp343
a((I1
I2
tp344
g3
tp345
a((I2
I2
tp346
g23
tp347
a((I2
I3
tp348
g12
tp349
a((I1
I3
tp350
g12
tp351
a((I0
I3
tp352
g18
tp353
a((I0
I2
tp354
g23
tp355
a((I0
I3
tp356
g18
tp357
a(g354
g18
tp358
a((I0
I1
tp359
g23
tp360
a((I0
I2
tp361
g3
tp362
a(g344
g3
tp363
a(g346
g23
tp364
a(g348
g3
tp365
a((I3
I3
tp366
g3
tp367
a((I4
I3
tp368
g3
tp369
a((I5
I3
tp370
g18
tp371
a((I5
I2
tp372
g26
tp373
aa(lp374
(g2
g3
tp375
a(g344
g12
tp376
a((I0
I2
tp377
g18
tp378
a(g359
g3
tp379
a((I1
I1
tp380
g3
tp381
a((I2
I1
tp382
g23
tp383
a((I2
I2
tp384
g12
tp385
a((I1
I2
tp386
g3
tp387
a(g346
g23
tp388
a(g348
g3
tp389
a(g366
g3
tp390
a(g368
g12
tp391
a((I3
I3
tp392
g3
tp393
a(g368
g3
tp394
a(g370
g18
tp395
a(g372
g26
tp396
aa(lp397
(g2
g18
tp398
a(g359
g23
tp399
a(g361
g3
tp400
a(g344
g3
tp401
a(g346
g23
tp402
a(g348
g12
tp403
a(g350
g3
tp404
a((I2
I3
tp405
g3
tp406
a(g366
g23
tp407
a((I3
I4
tp408
g18
tp409
a((I3
I3
tp410
g23
tp411
a(g408
g3
tp412
a((I4
I4
tp413
g18
tp414
a((I4
I3
tp415
g3
tp416
a(g370
g18
tp417
a(g372
g26
tp418
aa(lp419
(g2
g18
tp420
a(g359
g3
tp421
a(g380
g23
tp422
a((I1
I2
tp423
g23
tp424
a((I1
I3
tp425
g12
tp426
a(g352
g3
tp427
a((I1
I3
tp428
g12
tp429
a(g352
g3
tp430
a(g428
g3
tp431
a(g405
g3
tp432
a(g366
g3
tp433
a(g368
g3
tp434
a(g370
g23
tp435
a((I5
I4
tp436
g18
tp437
a((I5
I3
tp438
g18
tp439
a(g372
g26
tp440
aa(lp441
(g2
g3
tp442
a(g344
g18
tp443
a((I1
I1
tp444
g3
tp445
a(g382
g3
tp446
a((I3
I1
tp447
g12
tp448
a((I2
I1
tp449
g23
tp450
a(g384
g23
tp451
a(g348
g3
tp452
a(g366
g23
tp453
a(g408
g18
tp454
a(g410
g23
tp455
a(g408
g3
tp456
a(g413
g3
tp457
a((I5
I4
tp458
g18
tp459
a(g438
g23
tp460
a(g436
g18
tp461
a(g438
g18
tp462
a(g372
g26
tp463
aa(lp464
(g2
g3
tp465
a(g344
g3
tp466
a(g346
g23
tp467
a(g348
g12
tp468
a(g350
g23
tp469
a((I1
I4
tp470
g3
tp471
a((I2
I4
tp472
g3
tp473
a((I3
I4
tp474
g3
tp475
a(g413
g3
tp476
a(g458
g12
tp477
a((I4
I4
tp478
g18
tp479
a(g415
g23
tp480
a((I4
I4
tp481
g3
tp482
a(g458
g18
tp483
a(g438
g23
tp484
a(g436
g18
tp485
a(g438
g18
tp486
a(g372
g26
tp487
aa(lp488
(g2
g3
tp489
a(g344
g23
tp490
a(g425
g3
tp491
a(g405
g23
tp492
a((I2
I4
tp493
g12
tp494
a((I1
I4
tp495
g18
tp496
a((I1
I3
tp497
g18
tp498
a((I1
I2
tp499
g3
tp500
a(g346
g23
tp501
a(g348
g3
tp502
a(g366
g3
tp503
a(g368
g3
tp504
a(g370
g18
tp505
a(g372
g26
tp506
aa(lp507
(g2
g3
tp508
a(g344
g12
tp509
a(g377
g23
tp510
a(g356
g3
tp511
a(g428
g23
tp512
a(g470
g3
tp513
a(g472
g18
tp514
a((I2
I3
tp515
g12
tp516
a(g350
g3
tp517
a(g405
g18
tp518
a((I2
I2
tp519
g23
tp520
a(g348
g18
tp521
a(g519
g23
tp522
a(g348
g3
tp523
a(g366
g3
tp524
a(g368
g3
tp525
a(g370
g23
tp526
a(g436
g18
tp527
a(g438
g18
tp528
a(g372
g26
tp529
aa(lp530
(g2
g18
tp531
a(g359
g3
tp532
a(g380
g3
tp533
a(g382
g3
tp534
a(g447
g12
tp535
a(g449
g3
tp536
a(g447
g12
tp537
a(g449
g23
tp538
a(g384
g18
tp539
a((I2
I1
tp540
g23
tp541
a(g384
g12
tp542
a(g386
g23
tp543
a(g425
g3
tp544
a(g405
g3
tp545
a(g366
g23
tp546
a(g408
g3
tp547
a(g413
g3
tp548
a(g458
g12
tp549
a(g478
g18
tp550
a(g415
g23
tp551
a(g481
g3
tp552
a(g458
g18
tp553
a(g438
g18
tp554
a(g372
g26
tp555
aa(lp556
(g2
g18
tp557
a(g359
g18
tp558
a((I0
I0
tp559
g23
tp560
a((I0
I1
tp561
g3
tp562
a(g380
g23
tp563
a(g423
g23
tp564
a(g425
g3
tp565
a(g405
g12
tp566
a(g350
g18
tp567
a(g499
g23
tp568
a(g425
g3
tp569
a(g405
g3
tp570
a(g366
g3
tp571
a(g368
g23
tp572
a(g481
g18
tp573
a(g415
g3
tp574
a(g370
g12
tp575
a((I4
I3
tp576
g3
tp577
a(g370
g23
tp578
a(g436
g18
tp579
a(g438
g18
tp580
a(g372
g26
tp581
aa(lp582
(g2
g3
tp583
a(g344
g3
tp584
a(g346
g23
tp585
a(g348
g3
tp586
a(g366
g3
tp587
a(g368
g23
tp588
a(g481
g18
tp589
a(g415
g23
tp590
a(g481
g18
tp591
a(g415
g3
tp592
a(g370
g18
tp593
a(g372
g26
tp594
aa(lp595
(g2
g23
tp596
a(g356
g3
tp597
a(g428
g3
tp598
a(g405
g3
tp599
a(g366
g3
tp600
a(g368
g3
tp601
a(g370
g18
tp602
a(g372
g26
tp603
aa(lp604
(g2
g3
tp605
a(g344
g12
tp606
a(g377
g23
tp607
a(g356
g3
tp608
a(g428
g12
tp609
a(g352
g23
tp610
a((I0
I4
tp611
g3
tp612
a((I1
I4
tp613
g18
tp614
a(g497
g18
tp615
a(g499
g23
tp616
a(g425
g12
tp617
a(g352
g3
tp618
a(g428
g3
tp619
a(g405
g3
tp620
a(g366
g23
tp621
a(g408
g3
tp622
a(g413
g18
tp623
a(g415
g3
tp624
a(g370
g18
tp625
a(g372
g26
tp626
aa(lp627
(g2
g23
tp628
a(g356
g3
tp629
a(g428
g12
tp630
a(g352
g3
tp631
a(g428
g3
tp632
a(g405
g3
tp633
a(g366
g23
tp634
a(g408
g3
tp635
a(g413
g3
tp636
a(g458
g18
tp637
a(g438
g23
tp638
a(g436
g18
tp639
a(g438
g12
tp640
a(g576
g3
tp641
a(g370
g18
tp642
a(g372
g26
tp643
aa(lp644
(g2
g3
tp645
a(g344
g3
tp646
a(g346
g23
tp647
a(g348
g3
tp648
a(g366
g23
tp649
a(g408
g18
tp650
a(g410
g12
tp651
a((I2
I3
tp652
g3
tp653
a(g366
g3
tp654
a(g368
g3
tp655
a(g370
g18
tp656
a(g372
g26
tp657
aa(lp658
(g2
g18
tp659
a(g359
g3
tp660
a(g380
g23
tp661
a(g423
g3
tp662
a(g346
g12
tp663
a(g386
g12
tp664
a(g377
g23
tp665
a(g356
g3
tp666
a(g428
g18
tp667
a(g499
g3
tp668
a(g346
g12
tp669
a(g386
g23
tp670
a(g425
g3
tp671
a(g405
g12
tp672
a(g350
g3
tp673
a(g405
g3
tp674
a(g366
g3
tp675
a(g368
g3
tp676
a(g370
g18
tp677
a(g372
g26
tp678
aa(lp679
(g2
g3
tp680
a(g344
g12
tp681
a(g377
g3
tp682
a(g344
g23
tp683
a(g425
g3
tp684
a(g405
g23
tp685
a(g493
g3
tp686
a(g474
g3
tp687
a(g413
g18
tp688
a(g415
g3
tp689
a(g370
g18
tp690
a(g372
g26
tp691
aa(lp692
(g2
g18
tp693
a(g359
g23
tp694
a(g361
g3
tp695
a(g344
g18
tp696
a(g444
g23
tp697
a(g423
g3
tp698
a(g346
g12
tp699
a(g386
g23
tp700
a(g425
g3
tp701
a(g405
g3
tp702
a(g366
g23
tp703
a(g408
g3
tp704
a(g413
g18
tp705
a(g415
g3
tp706
a(g370
g18
tp707
a(g372
g26
tp708
aa(lp709
(g2
g23
tp710
a(g356
g3
tp711
a(g428
g3
tp712
a(g405
g3
tp713
a(g366
g3
tp714
a(g368
g3
tp715
a(g370
g18
tp716
a(g372
g26
tp717
aa(lp718
(g2
g23
tp719
a((I0
I3
tp720
g3
tp721
a((I1
I3
tp722
g23
tp723
a((I1
I4
tp724
g3
tp725
a((I2
I4
tp726
g3
tp727
a((I3
I4
tp728
g3
tp729
a((I4
I4
tp730
g3
tp731
a((I5
I4
tp732
g12
tp733
a((I4
I4
tp734
g3
tp735
a(g732
g18
tp736
a((I5
I3
tp737
g18
tp738
a((I5
I2
tp739
g26
tp740
aa(lp741
(g2
g3
tp742
a((I1
I2
tp743
g12
tp744
a((I0
I2
tp745
g3
tp746
a(g743
g18
tp747
a((I1
I1
tp748
g12
tp749
a((I0
I1
tp750
g3
tp751
a((I1
I1
tp752
g18
tp753
a((I1
I0
tp754
g3
tp755
a((I2
I0
tp756
g3
tp757
a((I3
I0
tp758
g12
tp759
a((I2
I0
tp760
g12
tp761
a((I1
I0
tp762
g23
tp763
a((I1
I1
tp764
g18
tp765
a(g754
g12
tp766
a((I0
I0
tp767
g3
tp768
a((I1
I0
tp769
g3
tp770
a(g756
g3
tp771
a(g758
g3
tp772
a((I4
I0
tp773
g3
tp774
a((I5
I0
tp775
g23
tp776
a((I5
I1
tp777
g23
tp778
a((I5
I2
tp779
g26
tp780
aa(lp781
(g2
g18
tp782
a((I0
I1
tp783
g3
tp784
a(g752
g23
tp785
a((I1
I2
tp786
g18
tp787
a(g748
g23
tp788
a(g786
g23
tp789
a((I1
I3
tp790
g23
tp791
a(g724
g3
tp792
a(g726
g12
tp793
a((I1
I4
tp794
g3
tp795
a(g726
g3
tp796
a(g728
g12
tp797
a((I2
I4
tp798
g3
tp799
a(g728
g3
tp800
a(g730
g3
tp801
a(g732
g18
tp802
a(g737
g18
tp803
a(g739
g26
tp804
aa(lp805
(g2
g3
tp806
a(g743
g23
tp807
a(g790
g23
tp808
a(g724
g3
tp809
a(g726
g3
tp810
a(g728
g3
tp811
a(g730
g3
tp812
a(g732
g18
tp813
a(g737
g18
tp814
a(g739
g26
tp815
aa(lp816
(g2
g23
tp817
a(g720
g3
tp818
a(g722
g12
tp819
a((I0
I3
tp820
g3
tp821
a(g722
g23
tp822
a(g724
g3
tp823
a(g726
g12
tp824
a(g794
g3
tp825
a(g726
g3
tp826
a(g728
g3
tp827
a(g730
g12
tp828
a((I3
I4
tp829
g12
tp830
a(g798
g3
tp831
a(g728
g3
tp832
a(g730
g3
tp833
a(g732
g18
tp834
a(g737
g18
tp835
a(g739
g26
tp836
aa(lp837
(g2
g3
tp838
a(g743
g12
tp839
a(g745
g3
tp840
a(g743
g23
tp841
a(g790
g23
tp842
a(g724
g3
tp843
a(g726
g3
tp844
a(g728
g3
tp845
a(g730
g3
tp846
a(g732
g18
tp847
a(g737
g18
tp848
a(g739
g26
tp849
aa(lp850
(g2
g23
tp851
a(g720
g3
tp852
a(g722
g23
tp853
a(g724
g12
tp854
a((I0
I4
tp855
g3
tp856
a((I1
I4
tp857
g3
tp858
a(g726
g3
tp859
a(g728
g3
tp860
a(g730
g3
tp861
a(g732
g18
tp862
a(g737
g18
tp863
a(g739
g26
tp864
aa(lp865
(g2
g18
tp866
a(g783
g23
tp867
a((I0
I2
tp868
g18
tp869
a(g783
g3
tp870
a(g752
g23
tp871
a(g786
g18
tp872
a(g748
g18
tp873
a(g754
g3
tp874
a(g756
g3
tp875
a(g758
g3
tp876
a(g773
g12
tp877
a((I3
I0
tp878
g3
tp879
a(g773
g23
tp880
a((I4
I1
tp881
g3
tp882
a((I5
I1
tp883
g23
tp884
a(g779
g26
tp885
aa(lp886
(g2
g18
tp887
a(g783
g23
tp888
a(g868
g18
tp889
a(g783
g18
tp890
a((I0
I0
tp891
g3
tp892
a(g769
g3
tp893
a(g756
g3
tp894
a(g758
g3
tp895
a(g773
g23
tp896
a(g881
g23
tp897
a((I4
I2
tp898
g18
tp899
a((I4
I1
tp900
g18
tp901
a((I4
I0
tp902
g3
tp903
a(g775
g23
tp904
a(g777
g23
tp905
a(g779
g26
tp906
aa(lp907
(g2
g18
tp908
a(g783
g3
tp909
a(g752
g18
tp910
a(g754
g3
tp911
a(g756
g3
tp912
a(g758
g3
tp913
a(g773
g3
tp914
a(g775
g23
tp915
a(g777
g23
tp916
a(g779
g26
tp917
aa(lp918
(g2
g23
tp919
a(g720
g18
tp920
a((I0
I2
tp921
g23
tp922
a(g720
g3
tp923
a(g722
g18
tp924
a((I1
I2
tp925
g23
tp926
a(g790
g23
tp927
a(g724
g3
tp928
a(g726
g3
tp929
a(g728
g12
tp930
a(g798
g3
tp931
a(g728
g3
tp932
a(g730
g3
tp933
a(g732
g18
tp934
a(g737
g18
tp935
a(g739
g26
tp936
aa(lp937
(g2
g3
tp938
a(g743
g18
tp939
a(g748
g18
tp940
a(g754
g3
tp941
a(g756
g3
tp942
a(g758
g3
tp943
a(g773
g3
tp944
a(g775
g23
tp945
a(g777
g23
tp946
a(g779
g26
tp947
aa(lp948
(g2
g23
tp949
a(g720
g3
tp950
a(g722
g23
tp951
a(g724
g18
tp952
a((I1
I3
tp953
g23
tp954
a(g724
g12
tp955
a(g855
g3
tp956
a(g857
g18
tp957
a(g953
g23
tp958
a(g724
g3
tp959
a(g726
g3
tp960
a(g728
g3
tp961
a(g730
g3
tp962
a(g732
g12
tp963
a(g734
g3
tp964
a(g732
g18
tp965
a(g737
g18
tp966
a(g739
g26
tp967
aa(lp968
(g2
g18
tp969
a(g783
g3
tp970
a(g752
g18
tp971
a(g754
g3
tp972
a(g756
g3
tp973
a(g758
g3
tp974
a(g773
g3
tp975
a(g775
g23
tp976
a(g777
g23
tp977
a(g779
g26
tp978
aa(lp979
(g2
g18
tp980
a(g783
g3
tp981
a(g752
g18
tp982
a(g754
g12
tp983
a(g767
g3
tp984
a(g769
g3
tp985
a(g756
g12
tp986
a(g762
g3
tp987
a(g756
g3
tp988
a(g758
g3
tp989
a(g773
g3
tp990
a(g775
g23
tp991
a(g777
g12
tp992
a((I4
I1
tp993
g3
tp994
a(g883
g23
tp995
a(g779
g26
tp996
aa(lp997
(g2
g18
tp998
a(g783
g18
tp999
a(g891
g23
tp1000
a((I0
I1
tp1001
g23
tp1002
a(g868
g23
tp1003
a(g720
g18
tp1004
a(g921
g18
tp1005
a(g783
g18
tp1006
a(g891
g3
tp1007
a(g769
g3
tp1008
a(g756
g3
tp1009
a(g758
g12
tp1010
a(g760
g3
tp1011
a(g758
g3
tp1012
a(g773
g3
tp1013
a(g775
g23
tp1014
a(g777
g23
tp1015
a(g779
g26
tp1016
aa(lp1017
(g2
g23
tp1018
a(g720
g3
tp1019
a(g722
g23
tp1020
a(g724
g3
tp1021
a(g726
g3
tp1022
a(g728
g3
tp1023
a(g730
g3
tp1024
a(g732
g18
tp1025
a(g737
g18
tp1026
a(g739
g26
tp1027
aa(lp1028
(g2
g23
tp1029
a(g720
g3
tp1030
a(g722
g23
tp1031
a(g724
g3
tp1032
a(g726
g3
tp1033
a(g728
g3
tp1034
a(g730
g3
tp1035
a(g732
g18
tp1036
a(g737
g18
tp1037
a(g739
g26
tp1038
aa(lp1039
(g2
g23
tp1040
a((I0
I3
tp1041
g18
tp1042
a((I0
I2
tp1043
g18
tp1044
a((I0
I1
tp1045
g18
tp1046
a((I0
I0
tp1047
g23
tp1048
a((I0
I1
tp1049
g18
tp1050
a(g1047
g23
tp1051
a(g1049
g3
tp1052
a((I1
I1
tp1053
g23
tp1054
a((I1
I2
tp1055
g23
tp1056
a((I1
I3
tp1057
g23
tp1058
a((I1
I4
tp1059
g12
tp1060
a((I0
I4
tp1061
g3
tp1062
a((I1
I4
tp1063
g3
tp1064
a((I2
I4
tp1065
g3
tp1066
a((I3
I4
tp1067
g3
tp1068
a((I4
I4
tp1069
g3
tp1070
a((I5
I4
tp1071
g18
tp1072
a((I5
I3
tp1073
g18
tp1074
a((I5
I2
tp1075
g26
tp1076
aa(lp1077
(g2
g23
tp1078
a(g1041
g3
tp1079
a((I1
I3
tp1080
g12
tp1081
a((I0
I3
tp1082
g23
tp1083
a((I0
I4
tp1084
g3
tp1085
a(g1063
g3
tp1086
a(g1065
g12
tp1087
a((I1
I4
tp1088
g3
tp1089
a(g1065
g3
tp1090
a(g1067
g12
tp1091
a((I2
I4
tp1092
g3
tp1093
a(g1067
g12
tp1094
a(g1092
g3
tp1095
a(g1067
g3
tp1096
a(g1069
g3
tp1097
a(g1071
g18
tp1098
a(g1073
g18
tp1099
a(g1075
g26
tp1100
aa(lp1101
(g2
g3
tp1102
a((I1
I2
tp1103
g23
tp1104
a(g1057
g18
tp1105
a((I1
I2
tp1106
g23
tp1107
a(g1057
g23
tp1108
a(g1059
g3
tp1109
a(g1065
g3
tp1110
a(g1067
g3
tp1111
a(g1069
g3
tp1112
a(g1071
g18
tp1113
a(g1073
g18
tp1114
a(g1075
g26
tp1115
aa(lp1116
(g2
g3
tp1117
a(g1103
g12
tp1118
a((I0
I2
tp1119
g23
tp1120
a(g1041
g23
tp1121
a(g1084
g3
tp1122
a(g1063
g12
tp1123
a(g1061
g3
tp1124
a(g1063
g12
tp1125
a(g1061
g3
tp1126
a(g1063
g3
tp1127
a(g1065
g3
tp1128
a(g1067
g3
tp1129
a(g1069
g3
tp1130
a(g1071
g18
tp1131
a(g1073
g18
tp1132
a(g1075
g26
tp1133
aa(lp1134
(g2
g23
tp1135
a(g1041
g3
tp1136
a(g1080
g23
tp1137
a(g1059
g18
tp1138
a((I1
I3
tp1139
g23
tp1140
a(g1059
g18
tp1141
a(g1139
g23
tp1142
a(g1059
g3
tp1143
a(g1065
g3
tp1144
a(g1067
g12
tp1145
a(g1092
g3
tp1146
a(g1067
g3
tp1147
a(g1069
g3
tp1148
a(g1071
g12
tp1149
a((I4
I4
tp1150
g3
tp1151
a(g1071
g18
tp1152
a(g1073
g18
tp1153
a(g1075
g26
tp1154
aa(lp1155
(g2
g3
tp1156
a(g1103
g23
tp1157
a(g1057
g23
tp1158
a(g1059
g3
tp1159
a(g1065
g3
tp1160
a(g1067
g3
tp1161
a(g1069
g3
tp1162
a(g1071
g12
tp1163
a(g1150
g3
tp1164
a(g1071
g18
tp1165
a(g1073
g18
tp1166
a(g1075
g26
tp1167
aa(lp1168
(g2
g23
tp1169
a(g1041
g23
tp1170
a(g1084
g3
tp1171
a(g1063
g3
tp1172
a(g1065
g12
tp1173
a(g1088
g3
tp1174
a(g1065
g3
tp1175
a(g1067
g3
tp1176
a(g1069
g3
tp1177
a(g1071
g12
tp1178
a(g1150
g3
tp1179
a(g1071
g18
tp1180
a(g1073
g18
tp1181
a(g1075
g26
tp1182
aa(lp1183
(g2
g23
tp1184
a(g1041
g3
tp1185
a(g1080
g23
tp1186
a(g1059
g3
tp1187
a(g1065
g3
tp1188
a(g1067
g3
tp1189
a(g1069
g3
tp1190
a(g1071
g18
tp1191
a(g1073
g18
tp1192
a(g1075
g26
tp1193
aa(lp1194
(g2
g23
tp1195
a(g1041
g23
tp1196
a(g1084
g3
tp1197
a(g1063
g3
tp1198
a(g1065
g12
tp1199
a(g1088
g3
tp1200
a(g1065
g3
tp1201
a(g1067
g3
tp1202
a(g1069
g3
tp1203
a(g1071
g18
tp1204
a(g1073
g23
tp1205
a((I5
I4
tp1206
g18
tp1207
a(g1073
g18
tp1208
a(g1075
g26
tp1209
aa(lp1210
(g2
g23
tp1211
a(g1041
g3
tp1212
a(g1080
g23
tp1213
a(g1059
g12
tp1214
a(g1061
g3
tp1215
a(g1063
g12
tp1216
a(g1061
g3
tp1217
a(g1063
g18
tp1218
a(g1139
g18
tp1219
a(g1106
g23
tp1220
a(g1057
g23
tp1221
a(g1059
g3
tp1222
a(g1065
g3
tp1223
a(g1067
g12
tp1224
a(g1092
g3
tp1225
a(g1067
g3
tp1226
a(g1069
g12
tp1227
a((I3
I4
tp1228
g3
tp1229
a(g1069
g3
tp1230
a(g1071
g18
tp1231
a(g1073
g23
tp1232
a(g1206
g18
tp1233
a(g1073
g18
tp1234
a(g1075
g26
tp1235
aa(lp1236
(g2
g3
tp1237
a(g1103
g12
tp1238
a(g1119
g3
tp1239
a(g1103
g23
tp1240
a(g1057
g18
tp1241
a(g1106
g23
tp1242
a(g1057
g23
tp1243
a(g1059
g3
tp1244
a(g1065
g3
tp1245
a(g1067
g3
tp1246
a(g1069
g3
tp1247
a(g1071
g12
tp1248
a(g1150
g3
tp1249
a(g1071
g18
tp1250
a(g1073
g18
tp1251
a(g1075
g26
tp1252
aa(lp1253
(g2
g23
tp1254
a(g1041
g23
tp1255
a(g1084
g18
tp1256
a((I0
I3
tp1257
g3
tp1258
a(g1080
g23
tp1259
a(g1059
g18
tp1260
a(g1139
g23
tp1261
a(g1059
g3
tp1262
a(g1065
g3
tp1263
a(g1067
g3
tp1264
a(g1069
g3
tp1265
a(g1071
g12
tp1266
a(g1150
g3
tp1267
a(g1071
g18
tp1268
a(g1073
g18
tp1269
a(g1075
g26
tp1270
aa(lp1271
(g2
g3
tp1272
a(g1103
g23
tp1273
a(g1057
g23
tp1274
a(g1059
g12
tp1275
a(g1061
g3
tp1276
a(g1063
g18
tp1277
a(g1139
g23
tp1278
a(g1059
g18
tp1279
a(g1139
g12
tp1280
a(g1082
g23
tp1281
a(g1084
g3
tp1282
a(g1063
g3
tp1283
a(g1065
g3
tp1284
a(g1067
g3
tp1285
a(g1069
g3
tp1286
a(g1071
g18
tp1287
a(g1073
g18
tp1288
a(g1075
g26
tp1289
aa(lp1290
(g2
g23
tp1291
a(g1041
g3
tp1292
a(g1080
g23
tp1293
a(g1059
g12
tp1294
a(g1061
g18
tp1295
a(g1257
g23
tp1296
a(g1084
g3
tp1297
a(g1063
g3
tp1298
a(g1065
g12
tp1299
a(g1088
g3
tp1300
a(g1065
g3
tp1301
a(g1067
g3
tp1302
a(g1069
g12
tp1303
a(g1228
g3
tp1304
a(g1069
g3
tp1305
a(g1071
g12
tp1306
a(g1150
g3
tp1307
a(g1071
g18
tp1308
a(g1073
g18
tp1309
a(g1075
g26
tp1310
aa(lp1311
(g2
g23
tp1312
a(g1041
g3
tp1313
a(g1080
g23
tp1314
a(g1059
g3
tp1315
a(g1065
g3
tp1316
a(g1067
g3
tp1317
a(g1069
g12
tp1318
a(g1228
g3
tp1319
a(g1069
g3
tp1320
a(g1071
g18
tp1321
a(g1073
g18
tp1322
a(g1075
g26
tp1323
aa(lp1324
(g2
g23
tp1325
a(g1041
g18
tp1326
a(g1043
g3
tp1327
a(g1103
g23
tp1328
a(g1057
g23
tp1329
a(g1059
g3
tp1330
a(g1065
g3
tp1331
a(g1067
g3
tp1332
a(g1069
g3
tp1333
a(g1071
g18
tp1334
a(g1073
g18
tp1335
a(g1075
g26
tp1336
aa(lp1337
(g2
g23
tp1338
a(g1041
g23
tp1339
a(g1084
g3
tp1340
a(g1063
g3
tp1341
a(g1065
g3
tp1342
a(g1067
g12
tp1343
a(g1092
g3
tp1344
a(g1067
g3
tp1345
a(g1069
g3
tp1346
a(g1071
g18
tp1347
a(g1073
g18
tp1348
a(g1075
g26
tp1349
aa(lp1350
(g2
g23
tp1351
a(g1041
g3
tp1352
a(g1080
g23
tp1353
a(g1059
g3
tp1354
a(g1065
g3
tp1355
a(g1067
g3
tp1356
a(g1069
g12
tp1357
a(g1228
g3
tp1358
a(g1069
g3
tp1359
a(g1071
g18
tp1360
a(g1073
g18
tp1361
a(g1075
g26
tp1362
aa(lp1363
(g2
g18
tp1364
a((I0
I1
tp1365
g18
tp1366
a((I0
I0
tp1367
g3
tp1368
a((I1
I0
tp1369
g3
tp1370
a((I2
I0
tp1371
g3
tp1372
a((I3
I0
tp1373
g3
tp1374
a((I4
I0
tp1375
g23
tp1376
a((I4
I1
tp1377
g23
tp1378
a((I4
I2
tp1379
g3
tp1380
a((I5
I2
tp1381
g26
tp1382
aa(lp1383
(g2
g18
tp1384
a(g1365
g23
tp1385
a((I0
I2
tp1386
g18
tp1387
a(g1365
g23
tp1388
a(g1386
g18
tp1389
a(g1365
g18
tp1390
a(g1367
g3
tp1391
a(g1369
g3
tp1392
a(g1371
g23
tp1393
a((I2
I1
tp1394
g23
tp1395
a((I2
I2
tp1396
g23
tp1397
a((I2
I3
tp1398
g18
tp1399
a((I2
I2
tp1400
g18
tp1401
a((I2
I1
tp1402
g23
tp1403
a(g1396
g3
tp1404
a((I3
I2
tp1405
g3
tp1406
a((I4
I2
tp1407
g23
tp1408
a((I4
I3
tp1409
g18
tp1410
a((I4
I2
tp1411
g3
tp1412
a(g1381
g26
tp1413
aa(lp1414
(g2
g18
tp1415
a(g1365
g18
tp1416
a(g1367
g3
tp1417
a(g1369
g3
tp1418
a(g1371
g12
tp1419
a((I1
I0
tp1420
g3
tp1421
a(g1371
g23
tp1422
a(g1394
g23
tp1423
a(g1396
g18
tp1424
a(g1402
g3
tp1425
a((I3
I1
tp1426
g3
tp1427
a((I4
I1
tp1428
g23
tp1429
a(g1379
g12
tp1430
a((I3
I2
tp1431
g3
tp1432
a(g1407
g3
tp1433
a(g1381
g26
tp1434
aa(lp1435
(g2
g18
tp1436
a(g1365
g18
tp1437
a(g1367
g3
tp1438
a(g1369
g3
tp1439
a(g1371
g3
tp1440
a(g1373
g23
tp1441
a((I3
I1
tp1442
g3
tp1443
a(g1428
g3
tp1444
a((I5
I1
tp1445
g23
tp1446
a((I5
I2
tp1447
g26
tp1448
aa(lp1449
(g2
g18
tp1450
a(g1365
g23
tp1451
a(g1386
g23
tp1452
a((I0
I3
tp1453
g23
tp1454
a((I0
I4
tp1455
g18
tp1456
a((I0
I3
tp1457
g23
tp1458
a(g1455
g18
tp1459
a(g1457
g18
tp1460
a((I0
I2
tp1461
g18
tp1462
a(g1365
g18
tp1463
a(g1367
g3
tp1464
a(g1369
g3
tp1465
a(g1371
g3
tp1466
a(g1373
g3
tp1467
a(g1375
g3
tp1468
a((I5
I0
tp1469
g12
tp1470
a((I4
I0
tp1471
g23
tp1472
a(g1377
g23
tp1473
a(g1379
g3
tp1474
a(g1381
g26
tp1475
aa(lp1476
(g2
g18
tp1477
a(g1365
g23
tp1478
a(g1386
g18
tp1479
a(g1365
g18
tp1480
a(g1367
g23
tp1481
a((I0
I1
tp1482
g18
tp1483
a(g1367
g3
tp1484
a(g1369
g3
tp1485
a(g1371
g3
tp1486
a(g1373
g3
tp1487
a(g1375
g3
tp1488
a(g1469
g23
tp1489
a((I5
I1
tp1490
g23
tp1491
a(g1447
g26
tp1492
aa(lp1493
(g2
g23
tp1494
a(g1453
g18
tp1495
a(g1461
g18
tp1496
a(g1365
g18
tp1497
a(g1367
g3
tp1498
a(g1369
g12
tp1499
a((I0
I0
tp1500
g3
tp1501
a(g1369
g3
tp1502
a(g1371
g12
tp1503
a(g1420
g3
tp1504
a(g1371
g3
tp1505
a(g1373
g23
tp1506
a(g1442
g23
tp1507
a((I3
I2
tp1508
g12
tp1509
a((I2
I2
tp1510
g3
tp1511
a(g1405
g3
tp1512
a(g1407
g3
tp1513
a(g1381
g26
tp1514
aa(lp1515
(g2
g18
tp1516
a(g1365
g23
tp1517
a(g1386
g23
tp1518
a(g1453
g23
tp1519
a(g1455
g18
tp1520
a(g1457
g23
tp1521
a(g1455
g18
tp1522
a(g1457
g18
tp1523
a(g1461
g18
tp1524
a(g1365
g18
tp1525
a(g1367
g3
tp1526
a(g1369
g3
tp1527
a(g1371
g23
tp1528
a(g1394
g23
tp1529
a(g1396
g3
tp1530
a(g1405
g3
tp1531
a(g1407
g3
tp1532
a(g1381
g26
tp1533
aa(lp1534
(g2
g18
tp1535
a(g1365
g23
tp1536
a(g1386
g23
tp1537
a(g1453
g18
tp1538
a(g1461
g18
tp1539
a(g1365
g23
tp1540
a(g1386
g23
tp1541
a(g1453
g23
tp1542
a(g1455
g18
tp1543
a(g1457
g18
tp1544
a(g1461
g18
tp1545
a(g1365
g18
tp1546
a(g1367
g3
tp1547
a(g1369
g12
tp1548
a(g1500
g23
tp1549
a(g1482
g18
tp1550
a(g1367
g3
tp1551
a(g1369
g3
tp1552
a(g1371
g3
tp1553
a(g1373
g23
tp1554
a(g1442
g23
tp1555
a(g1508
g3
tp1556
a(g1407
g3
tp1557
a(g1381
g26
tp1558
aa(lp1559
(g2
g23
tp1560
a(g1453
g18
tp1561
a(g1461
g23
tp1562
a(g1453
g23
tp1563
a(g1455
g18
tp1564
a(g1457
g23
tp1565
a(g1455
g18
tp1566
a(g1457
g18
tp1567
a(g1461
g18
tp1568
a(g1365
g18
tp1569
a(g1367
g3
tp1570
a(g1369
g3
tp1571
a(g1371
g23
tp1572
a(g1394
g3
tp1573
a(g1426
g18
tp1574
a((I3
I0
tp1575
g3
tp1576
a(g1375
g3
tp1577
a(g1469
g23
tp1578
a(g1490
g12
tp1579
a((I4
I1
tp1580
g23
tp1581
a(g1379
g3
tp1582
a(g1381
g26
tp1583
aa(lp1584
(g2
g23
tp1585
a(g1453
g23
tp1586
a(g1455
g18
tp1587
a(g1457
g23
tp1588
a(g1455
g18
tp1589
a(g1457
g18
tp1590
a(g1461
g18
tp1591
a(g1365
g18
tp1592
a(g1367
g3
tp1593
a(g1369
g3
tp1594
a(g1371
g23
tp1595
a(g1394
g23
tp1596
a(g1396
g3
tp1597
a(g1405
g23
tp1598
a((I3
I3
tp1599
g3
tp1600
a((I4
I3
tp1601
g18
tp1602
a(g1411
g3
tp1603
a(g1381
g26
tp1604
aa(lp1605
(g2
g18
tp1606
a(g1365
g18
tp1607
a(g1367
g3
tp1608
a(g1369
g3
tp1609
a(g1371
g23
tp1610
a(g1394
g3
tp1611
a(g1426
g3
tp1612
a(g1428
g3
tp1613
a(g1445
g23
tp1614
a(g1447
g26
tp1615
aa(lp1616
(g2
g18
tp1617
a(g1365
g18
tp1618
a(g1367
g3
tp1619
a(g1369
g3
tp1620
a(g1371
g23
tp1621
a(g1394
g23
tp1622
a(g1396
g3
tp1623
a(g1405
g3
tp1624
a(g1407
g23
tp1625
a(g1409
g18
tp1626
a(g1411
g3
tp1627
a(g1381
g26
tp1628
aa(lp1629
(g2
g18
tp1630
a(g1365
g18
tp1631
a(g1367
g23
tp1632
a(g1482
g18
tp1633
a(g1367
g3
tp1634
a(g1369
g12
tp1635
a(g1500
g3
tp1636
a(g1369
g3
tp1637
a(g1371
g3
tp1638
a(g1373
g23
tp1639
a(g1442
g3
tp1640
a(g1428
g3
tp1641
a(g1445
g18
tp1642
a((I5
I0
tp1643
g23
tp1644
a(g1490
g23
tp1645
a(g1447
g26
tp1646
aa(lp1647
(g2
g18
tp1648
a(g1365
g23
tp1649
a(g1386
g23
tp1650
a(g1453
g18
tp1651
a(g1461
g18
tp1652
a(g1365
g18
tp1653
a(g1367
g3
tp1654
a(g1369
g3
tp1655
a(g1371
g12
tp1656
a(g1420
g3
tp1657
a(g1371
g23
tp1658
a(g1394
g23
tp1659
a(g1396
g23
tp1660
a(g1398
g18
tp1661
a(g1400
g18
tp1662
a(g1402
g23
tp1663
a(g1396
g3
tp1664
a(g1405
g3
tp1665
a(g1407
g23
tp1666
a(g1409
g18
tp1667
a(g1411
g3
tp1668
a(g1381
g26
tp1669
aa(lp1670
(g2
g18
tp1671
a(g1365
g18
tp1672
a(g1367
g23
tp1673
a(g1482
g23
tp1674
a(g1386
g18
tp1675
a(g1365
g18
tp1676
a(g1367
g23
tp1677
a(g1482
g18
tp1678
a(g1367
g23
tp1679
a(g1482
g18
tp1680
a(g1367
g23
tp1681
a(g1482
g23
tp1682
a(g1386
g18
tp1683
a(g1365
g18
tp1684
a(g1367
g3
tp1685
a(g1369
g3
tp1686
a(g1371
g3
tp1687
a(g1373
g23
tp1688
a(g1442
g18
tp1689
a(g1575
g3
tp1690
a(g1375
g3
tp1691
a(g1469
g23
tp1692
a(g1490
g23
tp1693
a(g1447
g26
tp1694
aa(lp1695
(g2
g23
tp1696
a(g1453
g18
tp1697
a(g1461
g18
tp1698
a(g1365
g18
tp1699
a(g1367
g3
tp1700
a(g1369
g3
tp1701
a(g1371
g23
tp1702
a(g1394
g3
tp1703
a(g1426
g3
tp1704
a(g1428
g3
tp1705
a(g1445
g23
tp1706
a(g1447
g26
tp1707
aa(lp1708
(g2
g18
tp1709
a(g1365
g18
tp1710
a(g1367
g3
tp1711
a(g1369
g12
tp1712
a(g1500
g3
tp1713
a(g1369
g12
tp1714
a(g1500
g3
tp1715
a(g1369
g3
tp1716
a(g1371
g23
tp1717
a(g1394
g18
tp1718
a((I2
I0
tp1719
g3
tp1720
a(g1373
g3
tp1721
a(g1375
g23
tp1722
a(g1377
g12
tp1723
a((I3
I1
tp1724
g12
tp1725
a((I2
I1
tp1726
g3
tp1727
a(g1426
g18
tp1728
a(g1575
g3
tp1729
a(g1375
g23
tp1730
a(g1377
g23
tp1731
a(g1379
g3
tp1732
a(g1381
g26
tp1733
aa(lp1734
(g2
g18
tp1735
a(g1365
g18
tp1736
a(g1367
g3
tp1737
a(g1369
g3
tp1738
a(g1371
g3
tp1739
a(g1373
g23
tp1740
a(g1442
g23
tp1741
a(g1508
g12
tp1742
a(g1510
g3
tp1743
a(g1405
g3
tp1744
a(g1407
g12
tp1745
a(g1431
g3
tp1746
a(g1407
g3
tp1747
a(g1381
g26
tp1748
aa(lp1749
(g2
g23
tp1750
a((I0
I3
tp1751
g3
tp1752
a((I1
I3
tp1753
g3
tp1754
a((I2
I3
tp1755
g3
tp1756
a((I3
I3
tp1757
g12
tp1758
a((I2
I3
tp1759
g18
tp1760
a((I2
I2
tp1761
g18
tp1762
a((I2
I1
tp1763
g23
tp1764
a((I2
I2
tp1765
g23
tp1766
a((I2
I3
tp1767
g3
tp1768
a(g1757
g3
tp1769
a((I4
I3
tp1770
g3
tp1771
a((I5
I3
tp1772
g18
tp1773
a((I5
I2
tp1774
g26
tp1775
aa(lp1776
(g2
g23
tp1777
a(g1751
g3
tp1778
a(g1753
g3
tp1779
a(g1755
g3
tp1780
a(g1757
g12
tp1781
a(g1759
g3
tp1782
a(g1757
g12
tp1783
a(g1759
g3
tp1784
a(g1757
g3
tp1785
a(g1770
g12
tp1786
a((I3
I3
tp1787
g3
tp1788
a(g1770
g12
tp1789
a(g1787
g3
tp1790
a(g1770
g3
tp1791
a(g1772
g12
tp1792
a((I4
I3
tp1793
g3
tp1794
a(g1772
g18
tp1795
a(g1774
g26
tp1796
aa(lp1797
(g2
g23
tp1798
a(g1751
g3
tp1799
a(g1753
g3
tp1800
a(g1755
g3
tp1801
a(g1757
g3
tp1802
a(g1770
g3
tp1803
a(g1772
g18
tp1804
a(g1774
g26
tp1805
aa(lp1806
(g2
g23
tp1807
a(g1751
g18
tp1808
a((I0
I2
tp1809
g23
tp1810
a(g1751
g18
tp1811
a(g1809
g18
tp1812
a((I0
I1
tp1813
g18
tp1814
a((I0
I0
tp1815
g23
tp1816
a((I0
I1
tp1817
g23
tp1818
a((I0
I2
tp1819
g23
tp1820
a(g1751
g23
tp1821
a((I0
I4
tp1822
g18
tp1823
a((I0
I3
tp1824
g3
tp1825
a(g1753
g3
tp1826
a(g1755
g3
tp1827
a(g1757
g3
tp1828
a(g1770
g3
tp1829
a(g1772
g23
tp1830
a((I5
I4
tp1831
g18
tp1832
a((I5
I3
tp1833
g18
tp1834
a(g1774
g26
tp1835
aa(lp1836
(g2
g23
tp1837
a(g1751
g3
tp1838
a(g1753
g3
tp1839
a(g1755
g3
tp1840
a(g1757
g3
tp1841
a(g1770
g3
tp1842
a(g1772
g12
tp1843
a(g1793
g3
tp1844
a(g1772
g18
tp1845
a(g1774
g26
tp1846
aa(lp1847
(g2
g3
tp1848
a((I1
I2
tp1849
g3
tp1850
a((I2
I2
tp1851
g23
tp1852
a(g1767
g3
tp1853
a(g1757
g12
tp1854
a(g1759
g3
tp1855
a(g1757
g3
tp1856
a(g1770
g3
tp1857
a(g1772
g18
tp1858
a(g1774
g26
tp1859
aa(lp1860
(g2
g18
tp1861
a(g1813
g18
tp1862
a(g1815
g23
tp1863
a(g1817
g23
tp1864
a(g1819
g23
tp1865
a(g1751
g3
tp1866
a(g1753
g3
tp1867
a(g1755
g3
tp1868
a(g1757
g3
tp1869
a(g1770
g3
tp1870
a(g1772
g18
tp1871
a(g1774
g26
tp1872
aa(lp1873
(g2
g23
tp1874
a(g1751
g3
tp1875
a(g1753
g3
tp1876
a(g1755
g18
tp1877
a(g1761
g23
tp1878
a(g1767
g3
tp1879
a(g1757
g3
tp1880
a(g1770
g3
tp1881
a(g1772
g23
tp1882
a(g1831
g18
tp1883
a(g1833
g23
tp1884
a(g1831
g18
tp1885
a(g1833
g18
tp1886
a(g1774
g26
tp1887
aa(lp1888
(g2
g3
tp1889
a(g1849
g3
tp1890
a(g1851
g23
tp1891
a(g1767
g3
tp1892
a(g1757
g3
tp1893
a(g1770
g12
tp1894
a(g1787
g3
tp1895
a(g1770
g3
tp1896
a(g1772
g18
tp1897
a(g1774
g26
tp1898
aa(lp1899
(g2
g23
tp1900
a(g1751
g18
tp1901
a(g1809
g23
tp1902
a(g1751
g3
tp1903
a(g1753
g3
tp1904
a(g1755
g3
tp1905
a(g1757
g3
tp1906
a(g1770
g12
tp1907
a(g1787
g12
tp1908
a(g1759
g3
tp1909
a(g1757
g3
tp1910
a(g1770
g12
tp1911
a(g1787
g3
tp1912
a(g1770
g3
tp1913
a(g1772
g23
tp1914
a(g1831
g18
tp1915
a(g1833
g18
tp1916
a(g1774
g26
tp1917
aa(lp1918
(g2
g3
tp1919
a(g1849
g3
tp1920
a(g1851
g23
tp1921
a(g1767
g18
tp1922
a(g1761
g23
tp1923
a(g1767
g18
tp1924
a(g1761
g23
tp1925
a(g1767
g18
tp1926
a(g1761
g23
tp1927
a(g1767
g3
tp1928
a(g1757
g3
tp1929
a(g1770
g3
tp1930
a(g1772
g18
tp1931
a(g1774
g26
tp1932
aa(lp1933
(g2
g3
tp1934
a(g1849
g3
tp1935
a(g1851
g23
tp1936
a(g1767
g3
tp1937
a(g1757
g12
tp1938
a(g1759
g18
tp1939
a(g1761
g23
tp1940
a(g1767
g3
tp1941
a(g1757
g3
tp1942
a(g1770
g3
tp1943
a(g1772
g18
tp1944
a(g1774
g26
tp1945
aa(lp1946
(g2
g3
tp1947
a(g1849
g3
tp1948
a(g1851
g23
tp1949
a(g1767
g3
tp1950
a(g1757
g3
tp1951
a(g1770
g12
tp1952
a(g1787
g3
tp1953
a(g1770
g3
tp1954
a(g1772
g12
tp1955
a(g1793
g3
tp1956
a(g1772
g23
tp1957
a(g1831
g18
tp1958
a(g1833
g18
tp1959
a(g1774
g26
tp1960
aa(lp1961
(g2
g23
tp1962
a(g1751
g3
tp1963
a(g1753
g3
tp1964
a(g1755
g3
tp1965
a(g1757
g12
tp1966
a(g1759
g3
tp1967
a(g1757
g3
tp1968
a(g1770
g3
tp1969
a(g1772
g12
tp1970
a(g1793
g3
tp1971
a(g1772
g18
tp1972
a(g1774
g26
tp1973
aa(lp1974
(g2
g23
tp1975
a(g1751
g18
tp1976
a(g1809
g3
tp1977
a(g1849
g3
tp1978
a(g1851
g23
tp1979
a(g1767
g3
tp1980
a(g1757
g12
tp1981
a(g1759
g3
tp1982
a(g1757
g3
tp1983
a(g1770
g3
tp1984
a(g1772
g12
tp1985
a(g1793
g12
tp1986
a(g1787
g3
tp1987
a(g1770
g3
tp1988
a(g1772
g18
tp1989
a(g1774
g26
tp1990
aa(lp1991
(g2
g3
tp1992
a(g1849
g3
tp1993
a(g1851
g23
tp1994
a(g1767
g18
tp1995
a(g1761
g18
tp1996
a(g1763
g23
tp1997
a(g1765
g23
tp1998
a(g1767
g3
tp1999
a(g1757
g3
tp2000
a(g1770
g12
tp2001
a(g1787
g3
tp2002
a(g1770
g3
tp2003
a(g1772
g23
tp2004
a(g1831
g18
tp2005
a(g1833
g12
tp2006
a(g1793
g3
tp2007
a(g1772
g18
tp2008
a(g1774
g26
tp2009
aa(lp2010
(g2
g23
tp2011
a(g1751
g3
tp2012
a(g1753
g3
tp2013
a(g1755
g18
tp2014
a(g1761
g18
tp2015
a(g1763
g23
tp2016
a(g1765
g23
tp2017
a(g1767
g3
tp2018
a(g1757
g3
tp2019
a(g1770
g12
tp2020
a(g1787
g3
tp2021
a(g1770
g12
tp2022
a(g1787
g3
tp2023
a(g1770
g3
tp2024
a(g1772
g18
tp2025
a(g1774
g26
tp2026
aa(lp2027
(g2
g23
tp2028
a(g1751
g3
tp2029
a(g1753
g3
tp2030
a(g1755
g3
tp2031
a(g1757
g12
tp2032
a(g1759
g18
tp2033
a(g1761
g23
tp2034
a(g1767
g3
tp2035
a(g1757
g3
tp2036
a(g1770
g3
tp2037
a(g1772
g12
tp2038
a(g1793
g3
tp2039
a(g1772
g18
tp2040
a(g1774
g26
tp2041
aa(lp2042
(g2
g18
tp2043
a(g1813
g3
tp2044
a((I1
I1
tp2045
g3
tp2046
a((I2
I1
tp2047
g23
tp2048
a(g1765
g23
tp2049
a(g1767
g3
tp2050
a(g1757
g12
tp2051
a(g1759
g3
tp2052
a(g1757
g3
tp2053
a(g1770
g3
tp2054
a(g1772
g18
tp2055
a(g1774
g26
tp2056
aa(lp2057
(g2
g18
tp2058
a((I0
I1
tp2059
g18
tp2060
a((I0
I0
tp2061
g3
tp2062
a((I1
I0
tp2063
g3
tp2064
a((I2
I0
tp2065
g3
tp2066
a((I3
I0
tp2067
g3
tp2068
a((I4
I0
tp2069
g3
tp2070
a((I5
I0
tp2071
g23
tp2072
a((I5
I1
tp2073
g12
tp2074
a((I4
I1
tp2075
g23
tp2076
a((I4
I2
tp2077
g3
tp2078
a((I5
I2
tp2079
g26
tp2080
aa(lp2081
(g2
g18
tp2082
a(g2059
g18
tp2083
a(g2061
g3
tp2084
a(g2063
g3
tp2085
a(g2065
g3
tp2086
a(g2067
g3
tp2087
a(g2069
g12
tp2088
a((I3
I0
tp2089
g3
tp2090
a(g2069
g3
tp2091
a(g2071
g12
tp2092
a((I4
I0
tp2093
g3
tp2094
a(g2071
g23
tp2095
a(g2073
g23
tp2096
a((I5
I2
tp2097
g26
tp2098
aa(lp2099
(g2
g18
tp2100
a(g2059
g18
tp2101
a(g2061
g3
tp2102
a(g2063
g3
tp2103
a(g2065
g3
tp2104
a(g2067
g3
tp2105
a(g2069
g12
tp2106
a(g2089
g12
tp2107
a((I2
I0
tp2108
g3
tp2109
a(g2067
g3
tp2110
a(g2069
g23
tp2111
a((I4
I1
tp2112
g3
tp2113
a((I5
I1
tp2114
g18
tp2115
a((I5
I0
tp2116
g23
tp2117
a(g2073
g23
tp2118
a(g2097
g26
tp2119
aa(lp2120
(g2
g18
tp2121
a(g2059
g23
tp2122
a((I0
I2
tp2123
g18
tp2124
a(g2059
g18
tp2125
a(g2061
g3
tp2126
a(g2063
g3
tp2127
a(g2065
g3
tp2128
a(g2067
g3
tp2129
a(g2069
g3
tp2130
a(g2071
g23
tp2131
a(g2073
g23
tp2132
a(g2097
g26
tp2133
aa(lp2134
(g2
g18
tp2135
a(g2059
g18
tp2136
a(g2061
g3
tp2137
a(g2063
g3
tp2138
a(g2065
g3
tp2139
a(g2067
g3
tp2140
a(g2069
g3
tp2141
a(g2071
g23
tp2142
a(g2073
g23
tp2143
a(g2097
g26
tp2144
aa(lp2145
(g2
g18
tp2146
a(g2059
g18
tp2147
a(g2061
g23
tp2148
a((I0
I1
tp2149
g18
tp2150
a(g2061
g3
tp2151
a(g2063
g3
tp2152
a(g2065
g3
tp2153
a(g2067
g3
tp2154
a(g2069
g3
tp2155
a(g2071
g23
tp2156
a(g2073
g12
tp2157
a(g2075
g3
tp2158
a(g2114
g12
tp2159
a(g2075
g23
tp2160
a(g2077
g3
tp2161
a(g2079
g26
tp2162
aa(lp2163
(g2
g18
tp2164
a(g2059
g18
tp2165
a(g2061
g3
tp2166
a(g2063
g3
tp2167
a(g2065
g3
tp2168
a(g2067
g3
tp2169
a(g2069
g3
tp2170
a(g2071
g23
tp2171
a(g2073
g23
tp2172
a(g2097
g26
tp2173
aa(lp2174
(g2
g18
tp2175
a(g2059
g18
tp2176
a(g2061
g3
tp2177
a(g2063
g12
tp2178
a((I0
I0
tp2179
g23
tp2180
a(g2149
g18
tp2181
a(g2061
g3
tp2182
a(g2063
g3
tp2183
a(g2065
g3
tp2184
a(g2067
g3
tp2185
a(g2069
g23
tp2186
a(g2112
g3
tp2187
a(g2114
g23
tp2188
a(g2097
g26
tp2189
aa(lp2190
(g2
g23
tp2191
a((I0
I3
tp2192
g18
tp2193
a((I0
I2
tp2194
g18
tp2195
a(g2059
g18
tp2196
a(g2061
g3
tp2197
a(g2063
g3
tp2198
a(g2065
g3
tp2199
a(g2067
g3
tp2200
a(g2069
g23
tp2201
a(g2112
g23
tp2202
a(g2077
g3
tp2203
a(g2079
g26
tp2204
aa(lp2205
(g2
g18
tp2206
a(g2059
g18
tp2207
a(g2061
g3
tp2208
a(g2063
g12
tp2209
a(g2179
g23
tp2210
a(g2149
g18
tp2211
a(g2061
g3
tp2212
a(g2063
g3
tp2213
a(g2065
g3
tp2214
a(g2067
g12
tp2215
a(g2108
g3
tp2216
a(g2067
g3
tp2217
a(g2069
g23
tp2218
a(g2112
g3
tp2219
a(g2114
g23
tp2220
a(g2097
g26
tp2221
aa(lp2222
(g2
g18
tp2223
a(g2059
g18
tp2224
a(g2061
g3
tp2225
a(g2063
g12
tp2226
a(g2179
g3
tp2227
a(g2063
g3
tp2228
a(g2065
g3
tp2229
a(g2067
g3
tp2230
a(g2069
g23
tp2231
a(g2112
g3
tp2232
a(g2114
g12
tp2233
a(g2075
g3
tp2234
a(g2114
g23
tp2235
a(g2097
g26
tp2236
aa(lp2237
(g2
g23
tp2238
a(g2192
g23
tp2239
a((I0
I4
tp2240
g18
tp2241
a((I0
I3
tp2242
g23
tp2243
a(g2240
g18
tp2244
a(g2242
g18
tp2245
a(g2194
g18
tp2246
a(g2059
g18
tp2247
a(g2061
g3
tp2248
a(g2063
g3
tp2249
a(g2065
g3
tp2250
a(g2067
g3
tp2251
a(g2069
g23
tp2252
a(g2112
g3
tp2253
a(g2114
g23
tp2254
a(g2097
g26
tp2255
aa(lp2256
(g2
g23
tp2257
a(g2192
g18
tp2258
a(g2194
g18
tp2259
a(g2059
g18
tp2260
a(g2061
g3
tp2261
a(g2063
g3
tp2262
a(g2065
g12
tp2263
a((I1
I0
tp2264
g3
tp2265
a(g2065
g3
tp2266
a(g2067
g3
tp2267
a(g2069
g23
tp2268
a(g2112
g23
tp2269
a(g2077
g12
tp2270
a((I3
I2
tp2271
g3
tp2272
a((I4
I2
tp2273
g18
tp2274
a((I4
I1
tp2275
g3
tp2276
a(g2114
g23
tp2277
a(g2097
g26
tp2278
aa(lp2279
(g2
g18
tp2280
a(g2059
g18
tp2281
a(g2061
g3
tp2282
a(g2063
g3
tp2283
a(g2065
g3
tp2284
a(g2067
g3
tp2285
a(g2069
g3
tp2286
a(g2071
g23
tp2287
a(g2073
g23
tp2288
a(g2097
g26
tp2289
aa(lp2290
(g2
g18
tp2291
a(g2059
g23
tp2292
a(g2123
g23
tp2293
a(g2192
g18
tp2294
a(g2194
g18
tp2295
a(g2059
g18
tp2296
a(g2061
g3
tp2297
a(g2063
g3
tp2298
a(g2065
g12
tp2299
a(g2264
g3
tp2300
a(g2065
g3
tp2301
a(g2067
g3
tp2302
a(g2069
g3
tp2303
a(g2071
g23
tp2304
a(g2073
g23
tp2305
a(g2097
g26
tp2306
aa(lp2307
(g2
g18
tp2308
a(g2059
g23
tp2309
a(g2123
g23
tp2310
a(g2192
g18
tp2311
a(g2194
g23
tp2312
a(g2192
g18
tp2313
a(g2194
g18
tp2314
a(g2059
g18
tp2315
a(g2061
g3
tp2316
a(g2063
g12
tp2317
a(g2179
g3
tp2318
a(g2063
g12
tp2319
a(g2179
g3
tp2320
a(g2063
g3
tp2321
a(g2065
g3
tp2322
a(g2067
g3
tp2323
a(g2069
g3
tp2324
a(g2071
g23
tp2325
a(g2073
g23
tp2326
a(g2097
g26
tp2327
aa(lp2328
(g2
g18
tp2329
a(g2059
g18
tp2330
a(g2061
g3
tp2331
a(g2063
g3
tp2332
a(g2065
g3
tp2333
a(g2067
g3
tp2334
a(g2069
g3
tp2335
a(g2071
g23
tp2336
a(g2073
g23
tp2337
a(g2097
g26
tp2338
aa(lp2339
(g2
g18
tp2340
a(g2059
g18
tp2341
a(g2061
g23
tp2342
a(g2149
g18
tp2343
a(g2061
g3
tp2344
a(g2063
g3
tp2345
a(g2065
g3
tp2346
a(g2067
g3
tp2347
a(g2069
g3
tp2348
a(g2071
g12
tp2349
a(g2093
g3
tp2350
a(g2071
g23
tp2351
a(g2073
g23
tp2352
a(g2097
g26
tp2353
aa(lp2354
(g2
g3
tp2355
a((I1
I2
tp2356
g3
tp2357
a((I2
I2
tp2358
g3
tp2359
a((I3
I2
tp2360
g3
tp2361
a((I4
I2
tp2362
g3
tp2363
a((I5
I2
tp2364
g26
tp2365
aa(lp2366
(g2
g3
tp2367
a(g2356
g3
tp2368
a(g2358
g3
tp2369
a(g2360
g3
tp2370
a(g2362
g3
tp2371
a(g2364
g26
tp2372
aa(lp2373
(g2
g23
tp2374
a((I0
I3
tp2375
g3
tp2376
a((I1
I3
tp2377
g3
tp2378
a((I2
I3
tp2379
g3
tp2380
a((I3
I3
tp2381
g3
tp2382
a((I4
I3
tp2383
g3
tp2384
a((I5
I3
tp2385
g23
tp2386
a((I5
I4
tp2387
g18
tp2388
a((I5
I3
tp2389
g23
tp2390
a(g2387
g18
tp2391
a(g2389
g18
tp2392
a((I5
I2
tp2393
g26
tp2394
aa(lp2395
(g2
g3
tp2396
a(g2356
g3
tp2397
a(g2358
g3
tp2398
a(g2360
g3
tp2399
a(g2362
g3
tp2400
a(g2364
g26
tp2401
aa(lp2402
(g2
g3
tp2403
a(g2356
g3
tp2404
a(g2358
g3
tp2405
a(g2360
g3
tp2406
a(g2362
g3
tp2407
a(g2364
g26
tp2408
aa(lp2409
(g2
g18
tp2410
a((I0
I1
tp2411
g18
tp2412
a((I0
I0
tp2413
g3
tp2414
a((I1
I0
tp2415
g3
tp2416
a((I2
I0
tp2417
g3
tp2418
a((I3
I0
tp2419
g3
tp2420
a((I4
I0
tp2421
g3
tp2422
a((I5
I0
tp2423
g23
tp2424
a((I5
I1
tp2425
g18
tp2426
a((I5
I0
tp2427
g23
tp2428
a(g2425
g23
tp2429
a((I5
I2
tp2430
g26
tp2431
aa(lp2432
(g2
g23
tp2433
a(g2375
g18
tp2434
a((I0
I2
tp2435
g3
tp2436
a(g2356
g3
tp2437
a(g2358
g3
tp2438
a(g2360
g3
tp2439
a(g2362
g3
tp2440
a(g2364
g26
tp2441
aa(lp2442
(g2
g3
tp2443
a(g2356
g3
tp2444
a(g2358
g3
tp2445
a(g2360
g3
tp2446
a(g2362
g3
tp2447
a(g2364
g26
tp2448
aa(lp2449
(g2
g3
tp2450
a(g2356
g3
tp2451
a(g2358
g3
tp2452
a(g2360
g3
tp2453
a(g2362
g3
tp2454
a(g2364
g26
tp2455
aa(lp2456
(g2
g18
tp2457
a(g2411
g18
tp2458
a(g2413
g23
tp2459
a((I0
I1
tp2460
g3
tp2461
a((I1
I1
tp2462
g3
tp2463
a((I2
I1
tp2464
g3
tp2465
a((I3
I1
tp2466
g3
tp2467
a((I4
I1
tp2468
g3
tp2469
a((I5
I1
tp2470
g23
tp2471
a(g2430
g26
tp2472
aa(lp2473
(g2
g3
tp2474
a(g2356
g3
tp2475
a(g2358
g3
tp2476
a(g2360
g3
tp2477
a(g2362
g3
tp2478
a(g2364
g26
tp2479
aa(lp2480
(g2
g23
tp2481
a(g2375
g18
tp2482
a(g2435
g3
tp2483
a(g2356
g3
tp2484
a(g2358
g3
tp2485
a(g2360
g3
tp2486
a(g2362
g3
tp2487
a(g2364
g26
tp2488
aa(lp2489
(g2
g23
tp2490
a(g2375
g23
tp2491
a((I0
I4
tp2492
g18
tp2493
a((I0
I3
tp2494
g18
tp2495
a(g2435
g23
tp2496
a(g2375
g23
tp2497
a(g2492
g3
tp2498
a((I1
I4
tp2499
g3
tp2500
a((I2
I4
tp2501
g3
tp2502
a((I3
I4
tp2503
g3
tp2504
a((I4
I4
tp2505
g3
tp2506
a((I5
I4
tp2507
g18
tp2508
a(g2389
g18
tp2509
a(g2393
g26
tp2510
aa(lp2511
(g2
g23
tp2512
a(g2375
g18
tp2513
a(g2435
g18
tp2514
a(g2411
g23
tp2515
a((I0
I2
tp2516
g3
tp2517
a(g2356
g3
tp2518
a(g2358
g3
tp2519
a(g2360
g3
tp2520
a(g2362
g3
tp2521
a(g2364
g26
tp2522
aa(lp2523
(g2
g3
tp2524
a(g2356
g3
tp2525
a(g2358
g3
tp2526
a(g2360
g3
tp2527
a(g2362
g3
tp2528
a(g2364
g26
tp2529
aa(lp2530
(g2
g3
tp2531
a(g2356
g3
tp2532
a(g2358
g3
tp2533
a(g2360
g3
tp2534
a(g2362
g3
tp2535
a(g2364
g26
tp2536
aa(lp2537
(g2
g3
tp2538
a(g2356
g3
tp2539
a(g2358
g3
tp2540
a(g2360
g3
tp2541
a(g2362
g3
tp2542
a(g2364
g26
tp2543
aa(lp2544
(g2
g23
tp2545
a(g2375
g18
tp2546
a(g2435
g3
tp2547
a(g2356
g3
tp2548
a(g2358
g3
tp2549
a(g2360
g3
tp2550
a(g2362
g3
tp2551
a(g2364
g26
tp2552
aa(lp2553
(g2
g3
tp2554
a(g2356
g3
tp2555
a(g2358
g3
tp2556
a(g2360
g3
tp2557
a(g2362
g3
tp2558
a(g2364
g26
tp2559
aa(lp2560
(g2
g23
tp2561
a(g2375
g3
tp2562
a(g2377
g3
tp2563
a(g2379
g3
tp2564
a(g2381
g3
tp2565
a(g2383
g3
tp2566
a(g2385
g18
tp2567
a(g2393
g26
tp2568
aa.